target datalayout = "e-m:e-p270:32:32-p271:32:32-p272:64:64-i64:64-i128:128-f80:128-n8:16:32:64-S128"
target triple = "x86_64-pc-linux-gnu"

%struct.AVFormatContext = type { ptr, ptr, ptr, ptr, ptr, i32, i32, ptr, i32, ptr, i32, ptr, ptr, i64, i64, i64, i32, i32, i32, i64, i64, ptr, i32, i32, ptr, i32, i32, i32, i32, ptr, i64, i32, i32, %struct.AVIOInterruptCB, i32, i32, i32, i32, i64, i32, i32, i32, i32, i32, i32, i32, i32, i32, i32, i32, i32, i64, i32, i32, i32, i32, i32, ptr, ptr, ptr, ptr, i32, ptr, ptr, ptr, ptr, i32, ptr, ptr, i64, ptr, ptr, ptr, i64 }
%struct.AVIOInterruptCB = type { ptr, ptr }
%struct.WtvContext = type { ptr, i64, i64, i64, ptr, i32, i32 }
%struct.AVPacket = type { ptr, i64, i64, ptr, i32, i32, i32, ptr, i32, i64, i64, ptr, ptr, %struct.AVRational }
%struct.AVRational = type { i32, i32 }

; Function Attrs: nounwind uwtable
define internal i32 @read_packet(ptr noundef %0, ptr noundef %1) #0 {
  %3 = alloca i32, align 4
  %4 = alloca ptr, align 8
  %5 = alloca ptr, align 8
  %6 = alloca ptr, align 8
  %7 = alloca ptr, align 8
  %8 = alloca i32, align 4
  %9 = alloca i32, align 4
  %10 = alloca i32, align 4
  %11 = alloca i32, align 4
  store ptr %0, ptr %4, align 8, !tbaa !13
  store ptr %1, ptr %5, align 8, !tbaa !62
  call void @llvm.lifetime.start.p0(i64 8, ptr %6) #8
  %12 = load ptr, ptr %4, align 8, !tbaa !13
  %13 = getelementptr inbounds nuw %struct.AVFormatContext, ptr %12, i32 0, i32 3
  %14 = load ptr, ptr %13, align 8, !tbaa !15
  store ptr %14, ptr %6, align 8, !tbaa !30
  call void @llvm.lifetime.start.p0(i64 8, ptr %7) #8
  %15 = load ptr, ptr %6, align 8, !tbaa !30
  %16 = getelementptr inbounds nuw %struct.WtvContext, ptr %15, i32 0, i32 0
  %17 = load ptr, ptr %16, align 8, !tbaa !40
  store ptr %17, ptr %7, align 8, !tbaa !41
  call void @llvm.lifetime.start.p0(i64 4, ptr %8) #8
  call void @llvm.lifetime.start.p0(i64 4, ptr %9) #8
  call void @llvm.lifetime.start.p0(i64 4, ptr %10) #8
  %18 = load ptr, ptr %4, align 8, !tbaa !13
  %19 = call i32 @parse_chunks(ptr noundef %18, i32 noundef 0, i64 noundef 0, ptr noundef %9)
  store i32 %19, ptr %8, align 4, !tbaa !38
  %20 = load i32, ptr %8, align 4, !tbaa !38
  %21 = icmp slt i32 %20, 0
  br i1 %21, label %22, label %24

22:                                               ; preds = %2
  %23 = load i32, ptr %8, align 4, !tbaa !38
  store i32 %23, ptr %3, align 4
  store i32 1, ptr %11, align 4
  br label %51

24:                                               ; preds = %2
  %25 = load ptr, ptr %7, align 8, !tbaa !41
  %26 = load ptr, ptr %5, align 8, !tbaa !62
  %27 = load i32, ptr %9, align 4, !tbaa !38
  %28 = sub nsw i32 %27, 32
  %29 = call i32 @av_get_packet(ptr noundef %25, ptr noundef %26, i32 noundef %28)
  store i32 %29, ptr %10, align 4, !tbaa !38
  %30 = load i32, ptr %10, align 4, !tbaa !38
  %31 = icmp slt i32 %30, 0
  br i1 %31, label %32, label %34

32:                                               ; preds = %24
  %33 = load i32, ptr %10, align 4, !tbaa !38
  store i32 %33, ptr %3, align 4
  store i32 1, ptr %11, align 4
  br label %51

34:                                               ; preds = %24
  %35 = load i32, ptr %8, align 4, !tbaa !38
  %36 = load ptr, ptr %5, align 8, !tbaa !62
  %37 = getelementptr inbounds nuw %struct.AVPacket, ptr %36, i32 0, i32 5
  store i32 %35, ptr %37, align 4, !tbaa !64
  %38 = load ptr, ptr %6, align 8, !tbaa !30
  %39 = getelementptr inbounds nuw %struct.WtvContext, ptr %38, i32 0, i32 2
  %40 = load i64, ptr %39, align 8, !tbaa !35
  %41 = load ptr, ptr %5, align 8, !tbaa !62
  %42 = getelementptr inbounds nuw %struct.AVPacket, ptr %41, i32 0, i32 1
  store i64 %40, ptr %42, align 8, !tbaa !65
  %43 = load ptr, ptr %7, align 8, !tbaa !41
  %44 = load i32, ptr %9, align 4, !tbaa !38
  %45 = add nsw i32 %44, 7
  %46 = and i32 %45, -8
  %47 = load i32, ptr %9, align 4, !tbaa !38
  %48 = sub nsw i32 %46, %47
  %49 = sext i32 %48 to i64
  %50 = call i64 @avio_skip(ptr noundef %43, i64 noundef %49)
  store i32 0, ptr %3, align 4
  store i32 1, ptr %11, align 4
  br label %51

51:                                               ; preds = %34, %32, %22
  call void @llvm.lifetime.end.p0(i64 4, ptr %10) #8
  call void @llvm.lifetime.end.p0(i64 4, ptr %9) #8
  call void @llvm.lifetime.end.p0(i64 4, ptr %8) #8
  call void @llvm.lifetime.end.p0(i64 8, ptr %7) #8
  call void @llvm.lifetime.end.p0(i64 8, ptr %6) #8
  %52 = load i32, ptr %3, align 4
  ret i32 %52
}