; Function Attrs: nounwind uwtable
define internal range(i32 -2147483648, 1) i32 @read_packet(ptr noundef %0, ptr noundef %1) #1 {
  %3 = alloca i32, align 4
  %4 = getelementptr inbounds nuw i8, ptr %0, i64 24
  %5 = load ptr, ptr %4, align 8, !tbaa !11
  %6 = load ptr, ptr %5, align 8, !tbaa !32
  call void @llvm.lifetime.start.p0(i64 4, ptr nonnull %3) #11
  %7 = call fastcc i32 @parse_chunks(ptr noundef %0, i32 noundef 0, i64 noundef 0, ptr noundef nonnull %3)
  %8 = icmp slt i32 %7, 0
  br i1 %8, label %24, label %9

9:                                                ; preds = %2
  %10 = load i32, ptr %3, align 4, !tbaa !57
  %11 = add nsw i32 %10, -32
  %12 = call i32 @av_get_packet(ptr noundef %6, ptr noundef %1, i32 noundef %11) #11
  %13 = icmp slt i32 %12, 0
  br i1 %13, label %24, label %14

14:                                               ; preds = %9
  %15 = getelementptr inbounds nuw i8, ptr %1, i64 36
  store i32 %7, ptr %15, align 4, !tbaa !58
  %16 = getelementptr inbounds nuw i8, ptr %5, i64 16
  %17 = load i64, ptr %16, align 8, !tbaa !29
  %18 = getelementptr inbounds nuw i8, ptr %1, i64 8
  store i64 %17, ptr %18, align 8, !tbaa !59
  %19 = add nsw i32 %10, 7
  %20 = and i32 %19, -8
  %21 = sub nsw i32 %20, %10
  %22 = sext i32 %21 to i64
  %23 = call i64 @avio_skip(ptr noundef %6, i64 noundef %22) #11
  br label %24

24:                                               ; preds = %9, %2, %14
  %.0 = phi i32 [ 0, %14 ], [ %7, %2 ], [ %12, %9 ]
  call void @llvm.lifetime.end.p0(i64 4, ptr nonnull %3) #11
  ret i32 %.0
}